; Function Attrs: mustprogress nofree norecurse nosync nounwind willreturn memory(read, inaccessiblemem: none) uwtable
define range(i32 0, 2) i32 @var_is_assigned(ptr noundef readonly captures(none) %0, i32 noundef %1) local_unnamed_addr #0 {
  %3 = getelementptr inbounds nuw i8, ptr %0, i64 248
  %4 = load ptr, ptr %3, align 8
  %5 = sext i32 %1 to i64
  %6 = getelementptr inbounds i8, ptr %4, i64 %5
  %7 = load i8, ptr %6, align 1
  %8 = icmp ne i8 %7, 3
  %9 = zext i1 %8 to i32
  ret i32 %9
}